target datalayout = "e-m:e-p270:32:32-p271:32:32-p272:64:64-i64:64-i128:128-f80:128-n8:16:32:64-S128"
target triple = "x86_64-unknown-linux-gnu"

%"class.pugi::xml_attribute" = type { ptr }
%"struct.pugi::xml_attribute_struct" = type { i64, ptr, ptr, ptr, ptr }

@.str.51 = private unnamed_addr constant [6 x i8] c"false\00", align 1
@.str.72 = private unnamed_addr constant [5 x i8] c"true\00", align 1

; Function Attrs: mustprogress uwtable
define internal noundef zeroext i1 @_ZN4pugi4impl12_GLOBAL__N_114set_value_boolIPcmEEbRT_RT0_mb(ptr noundef nonnull align 8 dereferenceable(8) %dest, ptr noundef nonnull align 8 dereferenceable(8) %header, i64 noundef %header_mask, i1 noundef zeroext %value) #2 {
entry:
  %dest.addr = alloca ptr, align 8
  %header.addr = alloca ptr, align 8
  %header_mask.addr = alloca i64, align 8
  %value.addr = alloca i8, align 1
  store ptr %dest, ptr %dest.addr, align 8
  store ptr %header, ptr %header.addr, align 8
  store i64 %header_mask, ptr %header_mask.addr, align 8
  %frombool = zext i1 %value to i8
  store i8 %frombool, ptr %value.addr, align 1
  %0 = load ptr, ptr %dest.addr, align 8
  %1 = load ptr, ptr %header.addr, align 8
  %2 = load i64, ptr %header_mask.addr, align 8
  %3 = load i8, ptr %value.addr, align 1
  %tobool = trunc i8 %3 to i1
  %cond = select i1 %tobool, ptr @.str.72, ptr @.str.51
  %4 = load i8, ptr %value.addr, align 1
  %tobool1 = trunc i8 %4 to i1
  %cond2 = select i1 %tobool1, i32 4, i32 5
  %conv = sext i32 %cond2 to i64
  %call = call noundef zeroext i1 @_ZN4pugi4impl12_GLOBAL__N_113strcpy_insituIPcmEEbRT_RT0_mPKcm(ptr noundef nonnull align 8 dereferenceable(8) %0, ptr noundef nonnull align 8 dereferenceable(8) %1, i64 noundef %2, ptr noundef %cond, i64 noundef %conv)
  ret i1 %call
}

; Function Attrs: mustprogress uwtable
define noundef zeroext i1 @_ZN4pugi13xml_attribute9set_valueEb(ptr noundef nonnull align 8 dereferenceable(8) %this, i1 noundef zeroext %rhs) #2 align 2 {
entry:
  %retval = alloca i1, align 1
  %this.addr = alloca ptr, align 8
  %rhs.addr = alloca i8, align 1
  store ptr %this, ptr %this.addr, align 8
  %frombool = zext i1 %rhs to i8
  store i8 %frombool, ptr %rhs.addr, align 1
  %this1 = load ptr, ptr %this.addr, align 8
  %_attr = getelementptr inbounds %"class.pugi::xml_attribute", ptr %this1, i32 0, i32 0
  %0 = load ptr, ptr %_attr, align 8
  %tobool = icmp ne ptr %0, null
  br i1 %tobool, label %if.end, label %if.then

if.then:                                          ; preds = %entry
  store i1 false, ptr %retval, align 1
  br label %return

if.end:                                           ; preds = %entry
  %_attr2 = getelementptr inbounds %"class.pugi::xml_attribute", ptr %this1, i32 0, i32 0
  %1 = load ptr, ptr %_attr2, align 8
  %value = getelementptr inbounds %"struct.pugi::xml_attribute_struct", ptr %1, i32 0, i32 2
  %_attr3 = getelementptr inbounds %"class.pugi::xml_attribute", ptr %this1, i32 0, i32 0
  %2 = load ptr, ptr %_attr3, align 8
  %header = getelementptr inbounds %"struct.pugi::xml_attribute_struct", ptr %2, i32 0, i32 0
  %3 = load i8, ptr %rhs.addr, align 1
  %tobool4 = trunc i8 %3 to i1
  %call = call noundef zeroext i1 @_ZN4pugi4impl12_GLOBAL__N_114set_value_boolIPcmEEbRT_RT0_mb(ptr noundef nonnull align 8 dereferenceable(8) %value, ptr noundef nonnull align 8 dereferenceable(8) %header, i64 noundef 16, i1 noundef zeroext %tobool4)
  store i1 %call, ptr %retval, align 1
  br label %return

return:                                           ; preds = %if.end, %if.then
  %4 = load i1, ptr %retval, align 1
  ret i1 %4
}

; Function Attrs: mustprogress uwtable
define noundef nonnull align 8 dereferenceable(8) ptr @_ZN4pugi13xml_attributeaSEb(ptr noundef nonnull align 8 dereferenceable(8) %this, i1 noundef zeroext %rhs) #2 align 2 {
entry:
  %this.addr = alloca ptr, align 8
  %rhs.addr = alloca i8, align 1
  store ptr %this, ptr %this.addr, align 8
  %frombool = zext i1 %rhs to i8
  store i8 %frombool, ptr %rhs.addr, align 1
  %this1 = load ptr, ptr %this.addr, align 8
  %0 = load i8, ptr %rhs.addr, align 1
  %tobool = trunc i8 %0 to i1
  %call = call noundef zeroext i1 @_ZN4pugi13xml_attribute9set_valueEb(ptr noundef nonnull align 8 dereferenceable(8) %this1, i1 noundef zeroext %tobool)
  ret ptr %this1
}