; Function Attrs: mustprogress uwtable
define noundef nonnull align 8 dereferenceable(8) ptr @_ZN4pugi13xml_attributeaSEb(ptr noundef nonnull readonly returned align 8 dereferenceable(8) %this, i1 noundef zeroext %rhs) local_unnamed_addr #6 align 2 {
entry:
  %0 = load ptr, ptr %this, align 8
  %tobool.not.i = icmp eq ptr %0, null
  br i1 %tobool.not.i, label %_ZN4pugi13xml_attribute9set_valueEb.exit, label %if.end.i

if.end.i:                                         ; preds = %entry
  %value.i = getelementptr inbounds i8, ptr %0, i64 16
  %cond.i.i = select i1 %rhs, ptr @.str.72, ptr @.str.51
  %conv.i.i = select i1 %rhs, i64 4, i64 5
  %call.i.i = tail call fastcc noundef zeroext i1 @_ZN4pugi4impl12_GLOBAL__N_113strcpy_insituIPcmEEbRT_RT0_mPKcm(ptr noundef nonnull align 8 dereferenceable(8) %value.i, ptr noundef nonnull align 8 dereferenceable(8) %0, i64 noundef 16, ptr noundef nonnull %cond.i.i, i64 noundef %conv.i.i)
  br label %_ZN4pugi13xml_attribute9set_valueEb.exit

_ZN4pugi13xml_attribute9set_valueEb.exit:         ; preds = %entry, %if.end.i
  ret ptr %this
}